target datalayout = "e-m:e-p270:32:32-p271:32:32-p272:64:64-i64:64-i128:128-f80:128-n8:16:32:64-S128"
target triple = "x86_64-pc-linux-gnu"

@hf_aim_sst_md5_hash = internal global i32 0, align 4
@hf_aim_sst_md5_hash_size = internal global i32 0, align 4
@hf_aim_sst_unknown = internal global i32 0, align 4

; Function Attrs: null_pointer_is_valid sspstrong uwtable
define internal i32 @dissect_aim_sst_buddy_up_repl(ptr noundef %0, ptr noundef %1, ptr noundef %2) #0 {
  %4 = alloca ptr, align 8
  %5 = alloca ptr, align 8
  %6 = alloca ptr, align 8
  %7 = alloca i32, align 4
  %8 = alloca i8, align 1
  store ptr %0, ptr %4, align 8
  store ptr %1, ptr %5, align 8
  store ptr %2, ptr %6, align 8
  call void @llvm.lifetime.start.p0(i64 4, ptr %7) #13
  store i32 0, ptr %7, align 4
  call void @llvm.lifetime.start.p0(i64 1, ptr %8) #13
  %9 = load ptr, ptr %6, align 8
  %10 = load i32, ptr @hf_aim_sst_unknown, align 4
  %11 = load ptr, ptr %4, align 8
  %12 = load i32, ptr %7, align 4
  %13 = call ptr @proto_tree_add_item(ptr noundef %9, i32 noundef %10, ptr noundef %11, i32 noundef %12, i32 noundef 4, i32 noundef 0)
  %14 = load i32, ptr %7, align 4
  %15 = add i32 %14, 4
  store i32 %15, ptr %7, align 4
  %16 = load ptr, ptr %6, align 8
  %17 = load i32, ptr @hf_aim_sst_md5_hash_size, align 4
  %18 = load ptr, ptr %4, align 8
  %19 = load i32, ptr %7, align 4
  %20 = call ptr @proto_tree_add_item(ptr noundef %16, i32 noundef %17, ptr noundef %18, i32 noundef %19, i32 noundef 1, i32 noundef 0)
  %21 = load ptr, ptr %4, align 8
  %22 = load i32, ptr %7, align 4
  %23 = call zeroext i8 @tvb_get_uint8(ptr noundef %21, i32 noundef %22)
  store i8 %23, ptr %8, align 1
  %24 = load i32, ptr %7, align 4
  %25 = add i32 %24, 1
  store i32 %25, ptr %7, align 4
  %26 = load ptr, ptr %6, align 8
  %27 = load i32, ptr @hf_aim_sst_md5_hash, align 4
  %28 = load ptr, ptr %4, align 8
  %29 = load i32, ptr %7, align 4
  %30 = load i8, ptr %8, align 1
  %31 = zext i8 %30 to i32
  %32 = call ptr @proto_tree_add_item(ptr noundef %26, i32 noundef %27, ptr noundef %28, i32 noundef %29, i32 noundef %31, i32 noundef 0)
  %33 = load i8, ptr %8, align 1
  %34 = zext i8 %33 to i32
  %35 = load i32, ptr %7, align 4
  %36 = add i32 %35, %34
  store i32 %36, ptr %7, align 4
  %37 = load i32, ptr %7, align 4
  call void @llvm.lifetime.end.p0(i64 1, ptr %8) #13
  call void @llvm.lifetime.end.p0(i64 4, ptr %7) #13
  ret i32 %37
}