; Function Attrs: null_pointer_is_valid sspstrong uwtable
define internal range(i32 5, 261) i32 @dissect_aim_sst_buddy_up_repl(ptr noundef %0, ptr readnone captures(none) %1, ptr noundef %2) #0 {
  %4 = load i32, ptr @hf_aim_sst_unknown, align 4
  %5 = tail call ptr @proto_tree_add_item(ptr noundef %2, i32 noundef %4, ptr noundef %0, i32 noundef 0, i32 noundef 4, i32 noundef 0)
  %6 = load i32, ptr @hf_aim_sst_md5_hash_size, align 4
  %7 = tail call ptr @proto_tree_add_item(ptr noundef %2, i32 noundef %6, ptr noundef %0, i32 noundef 4, i32 noundef 1, i32 noundef 0)
  %8 = tail call zeroext i8 @tvb_get_uint8(ptr noundef %0, i32 noundef 4)
  %9 = load i32, ptr @hf_aim_sst_md5_hash, align 4
  %10 = zext i8 %8 to i32
  %11 = tail call ptr @proto_tree_add_item(ptr noundef %2, i32 noundef %9, ptr noundef %0, i32 noundef 5, i32 noundef %10, i32 noundef 0)
  %12 = add nuw nsw i32 %10, 5
  ret i32 %12
}